target datalayout = "e-m:e-p270:32:32-p271:32:32-p272:64:64-i64:64-i128:128-f80:128-n8:16:32:64-S128"
target triple = "x86_64-pc-linux-gnu"

%struct.Extra_UnateInfo_t_ = type { i32, i32, i32, ptr }
%struct.Extra_UnateVar_t_ = type { i32 }

@.str = private unnamed_addr constant [4 x i8] c"%s\0A\00", align 1

; Function Attrs: nounwind uwtable
define void @Extra_UnateInfoPrint(ptr noundef %0) #0 {
  %2 = alloca ptr, align 8
  %3 = alloca ptr, align 8
  %4 = alloca i32, align 4
  store ptr %0, ptr %2, align 8, !tbaa !10
  call void @llvm.lifetime.start.p0(i64 8, ptr %3) #6
  call void @llvm.lifetime.start.p0(i64 4, ptr %4) #6
  %5 = load ptr, ptr %2, align 8, !tbaa !10
  %6 = getelementptr inbounds nuw %struct.Extra_UnateInfo_t_, ptr %5, i32 0, i32 1
  %7 = load i32, ptr %6, align 4, !tbaa !34
  %8 = add nsw i32 %7, 1
  %9 = sext i32 %8 to i64
  %10 = mul i64 1, %9
  %11 = call noalias ptr @malloc(i64 noundef %10) #7
  store ptr %11, ptr %3, align 8, !tbaa !51
  %12 = load ptr, ptr %3, align 8, !tbaa !51
  %13 = load ptr, ptr %2, align 8, !tbaa !10
  %14 = getelementptr inbounds nuw %struct.Extra_UnateInfo_t_, ptr %13, i32 0, i32 1
  %15 = load i32, ptr %14, align 4, !tbaa !34
  %16 = sext i32 %15 to i64
  call void @llvm.memset.p0.i64(ptr align 1 %12, i8 32, i64 %16, i1 false)
  %17 = load ptr, ptr %3, align 8, !tbaa !51
  %18 = load ptr, ptr %2, align 8, !tbaa !10
  %19 = getelementptr inbounds nuw %struct.Extra_UnateInfo_t_, ptr %18, i32 0, i32 1
  %20 = load i32, ptr %19, align 4, !tbaa !34
  %21 = sext i32 %20 to i64
  %22 = getelementptr inbounds i8, ptr %17, i64 %21
  store i8 0, ptr %22, align 1, !tbaa !40
  store i32 0, ptr %4, align 4, !tbaa !31
  br label %23

23:                                               ; preds = %88, %1
  %24 = load i32, ptr %4, align 4, !tbaa !31
  %25 = load ptr, ptr %2, align 8, !tbaa !10
  %26 = getelementptr inbounds nuw %struct.Extra_UnateInfo_t_, ptr %25, i32 0, i32 0
  %27 = load i32, ptr %26, align 8, !tbaa !50
  %28 = icmp slt i32 %24, %27
  br i1 %28, label %29, label %91

29:                                               ; preds = %23
  %30 = load ptr, ptr %2, align 8, !tbaa !10
  %31 = getelementptr inbounds nuw %struct.Extra_UnateInfo_t_, ptr %30, i32 0, i32 3
  %32 = load ptr, ptr %31, align 8, !tbaa !39
  %33 = load i32, ptr %4, align 4, !tbaa !31
  %34 = sext i32 %33 to i64
  %35 = getelementptr inbounds %struct.Extra_UnateVar_t_, ptr %32, i64 %34
  %36 = load i32, ptr %35, align 4
  %37 = lshr i32 %36, 31
  %38 = icmp ne i32 %37, 0
  br i1 %38, label %39, label %51

39:                                               ; preds = %29
  %40 = load ptr, ptr %3, align 8, !tbaa !51
  %41 = load ptr, ptr %2, align 8, !tbaa !10
  %42 = getelementptr inbounds nuw %struct.Extra_UnateInfo_t_, ptr %41, i32 0, i32 3
  %43 = load ptr, ptr %42, align 8, !tbaa !39
  %44 = load i32, ptr %4, align 4, !tbaa !31
  %45 = sext i32 %44 to i64
  %46 = getelementptr inbounds %struct.Extra_UnateVar_t_, ptr %43, i64 %45
  %47 = load i32, ptr %46, align 4
  %48 = and i32 %47, 1073741823
  %49 = zext i32 %48 to i64
  %50 = getelementptr inbounds nuw i8, ptr %40, i64 %49
  store i8 110, ptr %50, align 1, !tbaa !40
  br label %87

51:                                               ; preds = %29
  %52 = load ptr, ptr %2, align 8, !tbaa !10
  %53 = getelementptr inbounds nuw %struct.Extra_UnateInfo_t_, ptr %52, i32 0, i32 3
  %54 = load ptr, ptr %53, align 8, !tbaa !39
  %55 = load i32, ptr %4, align 4, !tbaa !31
  %56 = sext i32 %55 to i64
  %57 = getelementptr inbounds %struct.Extra_UnateVar_t_, ptr %54, i64 %56
  %58 = load i32, ptr %57, align 4
  %59 = lshr i32 %58, 30
  %60 = and i32 %59, 1
  %61 = icmp ne i32 %60, 0
  br i1 %61, label %62, label %74

62:                                               ; preds = %51
  %63 = load ptr, ptr %3, align 8, !tbaa !51
  %64 = load ptr, ptr %2, align 8, !tbaa !10
  %65 = getelementptr inbounds nuw %struct.Extra_UnateInfo_t_, ptr %64, i32 0, i32 3
  %66 = load ptr, ptr %65, align 8, !tbaa !39
  %67 = load i32, ptr %4, align 4, !tbaa !31
  %68 = sext i32 %67 to i64
  %69 = getelementptr inbounds %struct.Extra_UnateVar_t_, ptr %66, i64 %68
  %70 = load i32, ptr %69, align 4
  %71 = and i32 %70, 1073741823
  %72 = zext i32 %71 to i64
  %73 = getelementptr inbounds nuw i8, ptr %63, i64 %72
  store i8 112, ptr %73, align 1, !tbaa !40
  br label %86

74:                                               ; preds = %51
  %75 = load ptr, ptr %3, align 8, !tbaa !51
  %76 = load ptr, ptr %2, align 8, !tbaa !10
  %77 = getelementptr inbounds nuw %struct.Extra_UnateInfo_t_, ptr %76, i32 0, i32 3
  %78 = load ptr, ptr %77, align 8, !tbaa !39
  %79 = load i32, ptr %4, align 4, !tbaa !31
  %80 = sext i32 %79 to i64
  %81 = getelementptr inbounds %struct.Extra_UnateVar_t_, ptr %78, i64 %80
  %82 = load i32, ptr %81, align 4
  %83 = and i32 %82, 1073741823
  %84 = zext i32 %83 to i64
  %85 = getelementptr inbounds nuw i8, ptr %75, i64 %84
  store i8 46, ptr %85, align 1, !tbaa !40
  br label %86

86:                                               ; preds = %74, %62
  br label %87

87:                                               ; preds = %86, %39
  br label %88

88:                                               ; preds = %87
  %89 = load i32, ptr %4, align 4, !tbaa !31
  %90 = add nsw i32 %89, 1
  store i32 %90, ptr %4, align 4, !tbaa !31
  br label %23, !llvm.loop !52

91:                                               ; preds = %23
  %92 = load ptr, ptr %3, align 8, !tbaa !51
  %93 = call i32 (ptr, ...) @printf(ptr noundef @.str, ptr noundef %92)
  %94 = load ptr, ptr %3, align 8, !tbaa !51
  %95 = icmp ne ptr %94, null
  br i1 %95, label %96, label %98

96:                                               ; preds = %91
  %97 = load ptr, ptr %3, align 8, !tbaa !51
  call void @free(ptr noundef %97) #6
  store ptr null, ptr %3, align 8, !tbaa !51
  br label %99

98:                                               ; preds = %91
  br label %99

99:                                               ; preds = %98, %96
  call void @llvm.lifetime.end.p0(i64 4, ptr %4) #6
  call void @llvm.lifetime.end.p0(i64 8, ptr %3) #6
  ret void
}