; Function Attrs: nounwind uwtable
define void @Extra_UnateInfoPrint(ptr noundef readonly captures(none) %0) local_unnamed_addr #0 {
  %2 = getelementptr inbounds nuw i8, ptr %0, i64 4
  %3 = load i32, ptr %2, align 4, !tbaa !31
  %4 = add nsw i32 %3, 1
  %5 = sext i32 %4 to i64
  %6 = tail call noalias ptr @malloc(i64 noundef %5) #10
  %7 = sext i32 %3 to i64
  tail call void @llvm.memset.p0.i64(ptr align 1 %6, i8 32, i64 %7, i1 false)
  %8 = getelementptr inbounds i8, ptr %6, i64 %7
  store i8 0, ptr %8, align 1, !tbaa !35
  %9 = load i32, ptr %0, align 8, !tbaa !26
  %10 = icmp sgt i32 %9, 0
  br i1 %10, label %.lr.ph, label %._crit_edge

.lr.ph:                                           ; preds = %1
  %11 = getelementptr inbounds nuw i8, ptr %0, i64 16
  %12 = load ptr, ptr %11, align 8, !tbaa !29
  %wide.trip.count = zext nneg i32 %9 to i64
  br label %13

13:                                               ; preds = %.lr.ph, %13
  %indvars.iv = phi i64 [ 0, %.lr.ph ], [ %indvars.iv.next, %13 ]
  %14 = getelementptr inbounds nuw %struct.Extra_UnateVar_t_, ptr %12, i64 %indvars.iv
  %15 = load i32, ptr %14, align 4
  %.not = icmp sgt i32 %15, -1
  %.not24 = icmp samesign ult i32 %15, 1073741824
  %spec.select30 = select i1 %.not24, i8 46, i8 112
  %.sink = select i1 %.not, i8 %spec.select30, i8 110
  %.sink29 = and i32 %15, 1073741823
  %16 = zext nneg i32 %.sink29 to i64
  %17 = getelementptr inbounds nuw i8, ptr %6, i64 %16
  store i8 %.sink, ptr %17, align 1, !tbaa !35
  %indvars.iv.next = add nuw nsw i64 %indvars.iv, 1
  %exitcond.not = icmp eq i64 %indvars.iv.next, %wide.trip.count
  br i1 %exitcond.not, label %._crit_edge, label %13, !llvm.loop !45

._crit_edge:                                      ; preds = %13, %1
  %puts = tail call i32 @puts(ptr nonnull dereferenceable(1) %6)
  tail call void @free(ptr noundef nonnull %6) #9
  ret void
}